target datalayout = "e-m:e-p270:32:32-p271:32:32-p272:64:64-i64:64-i128:128-f80:128-n8:16:32:64-S128"
target triple = "x86_64-pc-linux-gnu"

@hf_x11_event_sequencenumber = internal global i32 0, align 4
@hf_x11_unused = internal global i32 0, align 4
@hf_x11_xkb_BellNotify_xkbType = internal global i32 0, align 4
@hf_x11_xkb_BellNotify_time = internal global i32 0, align 4
@hf_x11_xkb_BellNotify_deviceID = internal global i32 0, align 4
@hf_x11_xkb_BellNotify_bellClass = internal global i32 0, align 4
@hf_x11_xkb_BellNotify_bellID = internal global i32 0, align 4
@hf_x11_xkb_BellNotify_percent = internal global i32 0, align 4
@hf_x11_xkb_BellNotify_pitch = internal global i32 0, align 4
@hf_x11_xkb_BellNotify_duration = internal global i32 0, align 4
@hf_x11_xkb_BellNotify_name = internal global i32 0, align 4
@hf_x11_xkb_BellNotify_window = internal global i32 0, align 4
@hf_x11_xkb_BellNotify_eventOnly = internal global i32 0, align 4

; Function Attrs: null_pointer_is_valid sspstrong uwtable
define internal void @xkbBellNotify(ptr noundef %0, ptr noundef %1, ptr noundef %2, i32 noundef %3) #1 {
  %5 = alloca ptr, align 8
  %6 = alloca ptr, align 8
  %7 = alloca ptr, align 8
  %8 = alloca i32, align 4
  store ptr %0, ptr %5, align 8
  store ptr %1, ptr %6, align 8
  store ptr %2, ptr %7, align 8
  store i32 %3, ptr %8, align 4
  %9 = load ptr, ptr %7, align 8
  %10 = load i32, ptr @hf_x11_xkb_BellNotify_xkbType, align 4
  %11 = load ptr, ptr %5, align 8
  %12 = load ptr, ptr %6, align 8
  %13 = load i32, ptr %12, align 4
  %14 = load i32, ptr %8, align 4
  %15 = call ptr @proto_tree_add_item(ptr noundef %9, i32 noundef %10, ptr noundef %11, i32 noundef %13, i32 noundef 1, i32 noundef %14)
  %16 = load ptr, ptr %6, align 8
  %17 = load i32, ptr %16, align 4
  %18 = add i32 %17, 1
  store i32 %18, ptr %16, align 4
  %19 = load ptr, ptr %5, align 8
  %20 = load ptr, ptr %6, align 8
  %21 = load ptr, ptr %7, align 8
  %22 = load i32, ptr @hf_x11_event_sequencenumber, align 4
  %23 = load i32, ptr %8, align 4
  %24 = call i32 @field16(ptr noundef %19, ptr noundef %20, ptr noundef %21, i32 noundef %22, i32 noundef %23)
  %25 = load ptr, ptr %7, align 8
  %26 = load i32, ptr @hf_x11_xkb_BellNotify_time, align 4
  %27 = load ptr, ptr %5, align 8
  %28 = load ptr, ptr %6, align 8
  %29 = load i32, ptr %28, align 4
  %30 = load i32, ptr %8, align 4
  %31 = call ptr @proto_tree_add_item(ptr noundef %25, i32 noundef %26, ptr noundef %27, i32 noundef %29, i32 noundef 4, i32 noundef %30)
  %32 = load ptr, ptr %6, align 8
  %33 = load i32, ptr %32, align 4
  %34 = add i32 %33, 4
  store i32 %34, ptr %32, align 4
  %35 = load ptr, ptr %7, align 8
  %36 = load i32, ptr @hf_x11_xkb_BellNotify_deviceID, align 4
  %37 = load ptr, ptr %5, align 8
  %38 = load ptr, ptr %6, align 8
  %39 = load i32, ptr %38, align 4
  %40 = load i32, ptr %8, align 4
  %41 = call ptr @proto_tree_add_item(ptr noundef %35, i32 noundef %36, ptr noundef %37, i32 noundef %39, i32 noundef 1, i32 noundef %40)
  %42 = load ptr, ptr %6, align 8
  %43 = load i32, ptr %42, align 4
  %44 = add i32 %43, 1
  store i32 %44, ptr %42, align 4
  %45 = load ptr, ptr %5, align 8
  %46 = load ptr, ptr %6, align 8
  %47 = load ptr, ptr %7, align 8
  %48 = load i32, ptr @hf_x11_xkb_BellNotify_bellClass, align 4
  %49 = load i32, ptr %8, align 4
  %50 = call i32 @field8(ptr noundef %45, ptr noundef %46, ptr noundef %47, i32 noundef %48, i32 noundef %49)
  %51 = load ptr, ptr %7, align 8
  %52 = load i32, ptr @hf_x11_xkb_BellNotify_bellID, align 4
  %53 = load ptr, ptr %5, align 8
  %54 = load ptr, ptr %6, align 8
  %55 = load i32, ptr %54, align 4
  %56 = load i32, ptr %8, align 4
  %57 = call ptr @proto_tree_add_item(ptr noundef %51, i32 noundef %52, ptr noundef %53, i32 noundef %55, i32 noundef 1, i32 noundef %56)
  %58 = load ptr, ptr %6, align 8
  %59 = load i32, ptr %58, align 4
  %60 = add i32 %59, 1
  store i32 %60, ptr %58, align 4
  %61 = load ptr, ptr %7, align 8
  %62 = load i32, ptr @hf_x11_xkb_BellNotify_percent, align 4
  %63 = load ptr, ptr %5, align 8
  %64 = load ptr, ptr %6, align 8
  %65 = load i32, ptr %64, align 4
  %66 = load i32, ptr %8, align 4
  %67 = call ptr @proto_tree_add_item(ptr noundef %61, i32 noundef %62, ptr noundef %63, i32 noundef %65, i32 noundef 1, i32 noundef %66)
  %68 = load ptr, ptr %6, align 8
  %69 = load i32, ptr %68, align 4
  %70 = add i32 %69, 1
  store i32 %70, ptr %68, align 4
  %71 = load ptr, ptr %7, align 8
  %72 = load i32, ptr @hf_x11_xkb_BellNotify_pitch, align 4
  %73 = load ptr, ptr %5, align 8
  %74 = load ptr, ptr %6, align 8
  %75 = load i32, ptr %74, align 4
  %76 = load i32, ptr %8, align 4
  %77 = call ptr @proto_tree_add_item(ptr noundef %71, i32 noundef %72, ptr noundef %73, i32 noundef %75, i32 noundef 2, i32 noundef %76)
  %78 = load ptr, ptr %6, align 8
  %79 = load i32, ptr %78, align 4
  %80 = add i32 %79, 2
  store i32 %80, ptr %78, align 4
  %81 = load ptr, ptr %7, align 8
  %82 = load i32, ptr @hf_x11_xkb_BellNotify_duration, align 4
  %83 = load ptr, ptr %5, align 8
  %84 = load ptr, ptr %6, align 8
  %85 = load i32, ptr %84, align 4
  %86 = load i32, ptr %8, align 4
  %87 = call ptr @proto_tree_add_item(ptr noundef %81, i32 noundef %82, ptr noundef %83, i32 noundef %85, i32 noundef 2, i32 noundef %86)
  %88 = load ptr, ptr %6, align 8
  %89 = load i32, ptr %88, align 4
  %90 = add i32 %89, 2
  store i32 %90, ptr %88, align 4
  %91 = load ptr, ptr %7, align 8
  %92 = load i32, ptr @hf_x11_xkb_BellNotify_name, align 4
  %93 = load ptr, ptr %5, align 8
  %94 = load ptr, ptr %6, align 8
  %95 = load i32, ptr %94, align 4
  %96 = load i32, ptr %8, align 4
  %97 = call ptr @proto_tree_add_item(ptr noundef %91, i32 noundef %92, ptr noundef %93, i32 noundef %95, i32 noundef 4, i32 noundef %96)
  %98 = load ptr, ptr %6, align 8
  %99 = load i32, ptr %98, align 4
  %100 = add i32 %99, 4
  store i32 %100, ptr %98, align 4
  %101 = load ptr, ptr %7, align 8
  %102 = load i32, ptr @hf_x11_xkb_BellNotify_window, align 4
  %103 = load ptr, ptr %5, align 8
  %104 = load ptr, ptr %6, align 8
  %105 = load i32, ptr %104, align 4
  %106 = load i32, ptr %8, align 4
  %107 = call ptr @proto_tree_add_item(ptr noundef %101, i32 noundef %102, ptr noundef %103, i32 noundef %105, i32 noundef 4, i32 noundef %106)
  %108 = load ptr, ptr %6, align 8
  %109 = load i32, ptr %108, align 4
  %110 = add i32 %109, 4
  store i32 %110, ptr %108, align 4
  %111 = load ptr, ptr %7, align 8
  %112 = load i32, ptr @hf_x11_xkb_BellNotify_eventOnly, align 4
  %113 = load ptr, ptr %5, align 8
  %114 = load ptr, ptr %6, align 8
  %115 = load i32, ptr %114, align 4
  %116 = load i32, ptr %8, align 4
  %117 = call ptr @proto_tree_add_item(ptr noundef %111, i32 noundef %112, ptr noundef %113, i32 noundef %115, i32 noundef 1, i32 noundef %116)
  %118 = load ptr, ptr %6, align 8
  %119 = load i32, ptr %118, align 4
  %120 = add i32 %119, 1
  store i32 %120, ptr %118, align 4
  %121 = load ptr, ptr %7, align 8
  %122 = load i32, ptr @hf_x11_unused, align 4
  %123 = load ptr, ptr %5, align 8
  %124 = load ptr, ptr %6, align 8
  %125 = load i32, ptr %124, align 4
  %126 = call ptr @proto_tree_add_item(ptr noundef %121, i32 noundef %122, ptr noundef %123, i32 noundef %125, i32 noundef 7, i32 noundef 0)
  %127 = load ptr, ptr %6, align 8
  %128 = load i32, ptr %127, align 4
  %129 = add i32 %128, 7
  store i32 %129, ptr %127, align 4
  ret void
}