; Function Attrs: null_pointer_is_valid sspstrong uwtable
define internal void @xkbBellNotify(ptr noundef %0, ptr noundef captures(none) %1, ptr noundef %2, i32 noundef %3) #1 {
  %5 = load i32, ptr @hf_x11_xkb_BellNotify_xkbType, align 4
  %6 = load i32, ptr %1, align 4
  %7 = tail call ptr @proto_tree_add_item(ptr noundef %2, i32 noundef %5, ptr noundef %0, i32 noundef %6, i32 noundef 1, i32 noundef %3)
  %8 = load i32, ptr %1, align 4
  %9 = add i32 %8, 1
  store i32 %9, ptr %1, align 4
  %10 = load i32, ptr @hf_x11_event_sequencenumber, align 4
  %11 = tail call fastcc i32 @field16(ptr noundef %0, ptr noundef %1, ptr noundef %2, i32 noundef %10, i32 noundef %3)
  %12 = load i32, ptr @hf_x11_xkb_BellNotify_time, align 4
  %13 = load i32, ptr %1, align 4
  %14 = tail call ptr @proto_tree_add_item(ptr noundef %2, i32 noundef %12, ptr noundef %0, i32 noundef %13, i32 noundef 4, i32 noundef %3)
  %15 = load i32, ptr %1, align 4
  %16 = add i32 %15, 4
  store i32 %16, ptr %1, align 4
  %17 = load i32, ptr @hf_x11_xkb_BellNotify_deviceID, align 4
  %18 = tail call ptr @proto_tree_add_item(ptr noundef %2, i32 noundef %17, ptr noundef %0, i32 noundef %16, i32 noundef 1, i32 noundef %3)
  %19 = load i32, ptr %1, align 4
  %20 = add i32 %19, 1
  store i32 %20, ptr %1, align 4
  %21 = load i32, ptr @hf_x11_xkb_BellNotify_bellClass, align 4
  %22 = tail call fastcc i32 @field8(ptr noundef %0, ptr noundef %1, ptr noundef %2, i32 noundef %21, i32 noundef %3)
  %23 = load i32, ptr @hf_x11_xkb_BellNotify_bellID, align 4
  %24 = load i32, ptr %1, align 4
  %25 = tail call ptr @proto_tree_add_item(ptr noundef %2, i32 noundef %23, ptr noundef %0, i32 noundef %24, i32 noundef 1, i32 noundef %3)
  %26 = load i32, ptr %1, align 4
  %27 = add i32 %26, 1
  store i32 %27, ptr %1, align 4
  %28 = load i32, ptr @hf_x11_xkb_BellNotify_percent, align 4
  %29 = tail call ptr @proto_tree_add_item(ptr noundef %2, i32 noundef %28, ptr noundef %0, i32 noundef %27, i32 noundef 1, i32 noundef %3)
  %30 = load i32, ptr %1, align 4
  %31 = add i32 %30, 1
  store i32 %31, ptr %1, align 4
  %32 = load i32, ptr @hf_x11_xkb_BellNotify_pitch, align 4
  %33 = tail call ptr @proto_tree_add_item(ptr noundef %2, i32 noundef %32, ptr noundef %0, i32 noundef %31, i32 noundef 2, i32 noundef %3)
  %34 = load i32, ptr %1, align 4
  %35 = add i32 %34, 2
  store i32 %35, ptr %1, align 4
  %36 = load i32, ptr @hf_x11_xkb_BellNotify_duration, align 4
  %37 = tail call ptr @proto_tree_add_item(ptr noundef %2, i32 noundef %36, ptr noundef %0, i32 noundef %35, i32 noundef 2, i32 noundef %3)
  %38 = load i32, ptr %1, align 4
  %39 = add i32 %38, 2
  store i32 %39, ptr %1, align 4
  %40 = load i32, ptr @hf_x11_xkb_BellNotify_name, align 4
  %41 = tail call ptr @proto_tree_add_item(ptr noundef %2, i32 noundef %40, ptr noundef %0, i32 noundef %39, i32 noundef 4, i32 noundef %3)
  %42 = load i32, ptr %1, align 4
  %43 = add i32 %42, 4
  store i32 %43, ptr %1, align 4
  %44 = load i32, ptr @hf_x11_xkb_BellNotify_window, align 4
  %45 = tail call ptr @proto_tree_add_item(ptr noundef %2, i32 noundef %44, ptr noundef %0, i32 noundef %43, i32 noundef 4, i32 noundef %3)
  %46 = load i32, ptr %1, align 4
  %47 = add i32 %46, 4
  store i32 %47, ptr %1, align 4
  %48 = load i32, ptr @hf_x11_xkb_BellNotify_eventOnly, align 4
  %49 = tail call ptr @proto_tree_add_item(ptr noundef %2, i32 noundef %48, ptr noundef %0, i32 noundef %47, i32 noundef 1, i32 noundef %3)
  %50 = load i32, ptr %1, align 4
  %51 = add i32 %50, 1
  store i32 %51, ptr %1, align 4
  %52 = load i32, ptr @hf_x11_unused, align 4
  %53 = tail call ptr @proto_tree_add_item(ptr noundef %2, i32 noundef %52, ptr noundef %0, i32 noundef %51, i32 noundef 7, i32 noundef 0)
  %54 = load i32, ptr %1, align 4
  %55 = add i32 %54, 7
  store i32 %55, ptr %1, align 4
  ret void
}